; Function Attrs: mustprogress nounwind uwtable
define internal fastcc void @_ZL7call_vmP14MacroAssemblerPh8RegisterS2_(ptr noundef %0, ptr noundef %1, i32 %2, i32 %3) unnamed_addr #0 {
  %.not = icmp eq i32 %3, 7
  br i1 %.not, label %5, label %8

5:                                                ; preds = %4
  %.not30 = icmp eq i32 %2, 6
  br i1 %.not30, label %6, label %7

6:                                                ; preds = %5
  tail call void @_ZN9Assembler5xchgqE8RegisterS0_(ptr noundef nonnull align 8 dereferenceable(40) %0, i32 6, i32 7) #9
  br label %12

7:                                                ; preds = %5
  tail call void @_ZN14MacroAssembler6movptrE8RegisterS0_(ptr noundef nonnull align 8 dereferenceable(40) %0, i32 6, i32 7) #9
  tail call void @_ZN14MacroAssembler6movptrE8RegisterS0_(ptr noundef nonnull align 8 dereferenceable(40) %0, i32 7, i32 %2) #9
  br label %12

8:                                                ; preds = %4
  %.not31 = icmp eq i32 %2, 7
  br i1 %.not31, label %10, label %9

9:                                                ; preds = %8
  tail call void @_ZN14MacroAssembler6movptrE8RegisterS0_(ptr noundef nonnull align 8 dereferenceable(40) %0, i32 7, i32 %2) #9
  br label %10

10:                                               ; preds = %9, %8
  %.not32 = icmp eq i32 %3, 6
  br i1 %.not32, label %12, label %11

11:                                               ; preds = %10
  tail call void @_ZN14MacroAssembler6movptrE8RegisterS0_(ptr noundef nonnull align 8 dereferenceable(40) %0, i32 6, i32 %3) #9
  br label %12

12:                                               ; preds = %10, %11, %6, %7
  tail call void @_ZN14MacroAssembler17call_VM_leaf_baseEPhi(ptr noundef nonnull align 8 dereferenceable(40) %0, ptr noundef %1, i32 noundef 2) #9
  ret void
}